; Function Attrs: nounwind uwtable
define dso_local range(i32 0, 2) i32 @checkPasswordBasedAuth(ptr noundef %0, ptr noundef readonly captures(none) %1, ptr noundef readonly captures(none) %2) local_unnamed_addr #0 {
  %4 = alloca ptr, align 8
  %5 = tail call i32 @ACLCheckUserCredentials(ptr noundef %1, ptr noundef %2)
  %6 = icmp eq i32 %5, 0
  br i1 %6, label %7, label %37

7:                                                ; preds = %3
  %8 = getelementptr inbounds nuw i8, ptr %0, i64 264
  store i32 1, ptr %8, align 8, !tbaa !147
  %9 = getelementptr inbounds nuw i8, ptr %1, i64 8
  %10 = load ptr, ptr %9, align 8, !tbaa !144
  %11 = getelementptr inbounds i8, ptr %10, i64 -1
  %12 = load i8, ptr %11, align 1, !tbaa !19
  %13 = zext i8 %12 to i32
  %14 = and i32 %13, 7
  switch i32 %14, label %sdslen.exit [
    i32 0, label %15
    i32 1, label %18
    i32 2, label %22
    i32 3, label %26
    i32 4, label %30
  ]

15:                                               ; preds = %7
  %16 = lshr i32 %13, 3
  %17 = zext nneg i32 %16 to i64
  br label %sdslen.exit

18:                                               ; preds = %7
  %19 = getelementptr inbounds i8, ptr %10, i64 -3
  %20 = load i8, ptr %19, align 1, !tbaa !19
  %21 = zext i8 %20 to i64
  br label %sdslen.exit

22:                                               ; preds = %7
  %23 = getelementptr inbounds i8, ptr %10, i64 -5
  %24 = load i16, ptr %23, align 1, !tbaa !26
  %25 = zext i16 %24 to i64
  br label %sdslen.exit

26:                                               ; preds = %7
  %27 = getelementptr inbounds i8, ptr %10, i64 -9
  %28 = load i32, ptr %27, align 1, !tbaa !102
  %29 = zext i32 %28 to i64
  br label %sdslen.exit

30:                                               ; preds = %7
  %31 = getelementptr inbounds i8, ptr %10, i64 -17
  %32 = load i64, ptr %31, align 1, !tbaa !5
  br label %sdslen.exit

sdslen.exit:                                      ; preds = %7, %15, %18, %22, %26, %30
  %.0.i = phi i64 [ %32, %30 ], [ %29, %26 ], [ %25, %22 ], [ %21, %18 ], [ %17, %15 ], [ 0, %7 ]
  call void @llvm.lifetime.start.p0(i64 8, ptr nonnull %4) #25
  store ptr null, ptr %4, align 8, !tbaa !143
  %33 = load ptr, ptr @Users, align 8, !tbaa !87
  %34 = call i32 @raxFind(ptr noundef %33, ptr noundef nonnull %10, i64 noundef %.0.i, ptr noundef nonnull %4) #25
  %35 = load ptr, ptr %4, align 8, !tbaa !143
  call void @llvm.lifetime.end.p0(i64 8, ptr nonnull %4) #25
  %36 = getelementptr inbounds nuw i8, ptr %0, i64 160
  store ptr %35, ptr %36, align 8, !tbaa !93
  call void @moduleNotifyUserChanged(ptr noundef nonnull %0) #25
  br label %45

37:                                               ; preds = %3
  %38 = getelementptr inbounds nuw i8, ptr %0, i64 8
  %39 = load i64, ptr %38, align 8, !tbaa !148
  %40 = trunc i64 %39 to i32
  %41 = lshr i32 %40, 2
  %42 = and i32 %41, 2
  %43 = getelementptr inbounds nuw i8, ptr %1, i64 8
  %44 = load ptr, ptr %43, align 8, !tbaa !144
  tail call void @addACLLogEntry(ptr noundef %0, i32 noundef 3, i32 noundef %42, i32 noundef 0, ptr noundef %44, ptr noundef null)
  br label %45

45:                                               ; preds = %37, %sdslen.exit
  %.0 = phi i32 [ 0, %sdslen.exit ], [ 1, %37 ]
  ret i32 %.0
}